target datalayout = "e-m:e-p270:32:32-p271:32:32-p272:64:64-i64:64-i128:128-f80:128-n8:16:32:64-S128"
target triple = "x86_64-pc-linux-gnu"

%struct.archive_write = type { %struct.archive, i32, i64, i64, ptr, i64, ptr, ptr, ptr, ptr, ptr, i32, i32, ptr, ptr, ptr, ptr, ptr, ptr, ptr, ptr, ptr, ptr, ptr, ptr, ptr, ptr }
%struct.archive = type { i32, i32, ptr, i32, ptr, i32, i32, ptr, %struct.archive_string, ptr, i32, i32, ptr, ptr, i64, i64, i64, i8, i64 }
%struct.archive_string = type { ptr, i64, i64 }

@.str = private unnamed_addr constant [37 x i8] c"archive_write_set_format_cpio_binary\00", align 1
@.str.1 = private unnamed_addr constant [25 x i8] c"Can't allocate cpio data\00", align 1
@.str.2 = private unnamed_addr constant [5 x i8] c"cpio\00", align 1
@.str.3 = private unnamed_addr constant [9 x i8] c"PWB cpio\00", align 1
@.str.4 = private unnamed_addr constant [17 x i8] c"7th Edition cpio\00", align 1
@.str.5 = private unnamed_addr constant [37 x i8] c"binary format must be 'pwb' or 'bin'\00", align 1

; Function Attrs: nounwind uwtable
define internal i32 @archive_write_set_format_cpio_binary(ptr noundef %0, i32 noundef %1) #0 {
  %3 = alloca i32, align 4
  %4 = alloca ptr, align 8
  %5 = alloca i32, align 4
  %6 = alloca ptr, align 8
  %7 = alloca ptr, align 8
  %8 = alloca i32, align 4
  store ptr %0, ptr %4, align 8
  store i32 %1, ptr %5, align 4
  %9 = load ptr, ptr %4, align 8
  store ptr %9, ptr %6, align 8
  br label %10

10:                                               ; preds = %2
  %11 = load ptr, ptr %4, align 8
  %12 = call i32 @__archive_check_magic(ptr noundef %11, i32 noundef -1329217314, i32 noundef 1, ptr noundef @.str)
  store i32 %12, ptr %8, align 4
  %13 = load i32, ptr %8, align 4
  %14 = icmp eq i32 %13, -30
  br i1 %14, label %15, label %16

15:                                               ; preds = %10
  store i32 -30, ptr %3, align 4
  br label %70

16:                                               ; preds = %10
  br label %17

17:                                               ; preds = %16
  %18 = load ptr, ptr %6, align 8
  %19 = getelementptr inbounds %struct.archive_write, ptr %18, i32 0, i32 23
  %20 = load ptr, ptr %19, align 8
  %21 = icmp ne ptr %20, null
  br i1 %21, label %22, label %28

22:                                               ; preds = %17
  %23 = load ptr, ptr %6, align 8
  %24 = getelementptr inbounds %struct.archive_write, ptr %23, i32 0, i32 23
  %25 = load ptr, ptr %24, align 8
  %26 = load ptr, ptr %6, align 8
  %27 = call i32 %25(ptr noundef %26)
  br label %28

28:                                               ; preds = %22, %17
  %29 = call noalias ptr @calloc(i64 noundef 1, i64 noundef 64) #7
  store ptr %29, ptr %7, align 8
  %30 = load ptr, ptr %7, align 8
  %31 = icmp eq ptr %30, null
  br i1 %31, label %32, label %35

32:                                               ; preds = %28
  %33 = load ptr, ptr %6, align 8
  %34 = getelementptr inbounds %struct.archive_write, ptr %33, i32 0, i32 0
  call void (ptr, i32, ptr, ...) @archive_set_error(ptr noundef %34, i32 noundef 12, ptr noundef @.str.1)
  store i32 -30, ptr %3, align 4
  br label %70

35:                                               ; preds = %28
  %36 = load ptr, ptr %7, align 8
  %37 = load ptr, ptr %6, align 8
  %38 = getelementptr inbounds %struct.archive_write, ptr %37, i32 0, i32 15
  store ptr %36, ptr %38, align 8
  %39 = load ptr, ptr %6, align 8
  %40 = getelementptr inbounds %struct.archive_write, ptr %39, i32 0, i32 16
  store ptr @.str.2, ptr %40, align 8
  %41 = load ptr, ptr %6, align 8
  %42 = getelementptr inbounds %struct.archive_write, ptr %41, i32 0, i32 18
  store ptr @archive_write_binary_options, ptr %42, align 8
  %43 = load ptr, ptr %6, align 8
  %44 = getelementptr inbounds %struct.archive_write, ptr %43, i32 0, i32 20
  store ptr @archive_write_binary_header, ptr %44, align 8
  %45 = load ptr, ptr %6, align 8
  %46 = getelementptr inbounds %struct.archive_write, ptr %45, i32 0, i32 21
  store ptr @archive_write_binary_data, ptr %46, align 8
  %47 = load ptr, ptr %6, align 8
  %48 = getelementptr inbounds %struct.archive_write, ptr %47, i32 0, i32 19
  store ptr @archive_write_binary_finish_entry, ptr %48, align 8
  %49 = load ptr, ptr %6, align 8
  %50 = getelementptr inbounds %struct.archive_write, ptr %49, i32 0, i32 22
  store ptr @archive_write_binary_close, ptr %50, align 8
  %51 = load ptr, ptr %6, align 8
  %52 = getelementptr inbounds %struct.archive_write, ptr %51, i32 0, i32 23
  store ptr @archive_write_binary_free, ptr %52, align 8
  %53 = load i32, ptr %5, align 4
  %54 = load ptr, ptr %6, align 8
  %55 = getelementptr inbounds %struct.archive_write, ptr %54, i32 0, i32 0
  %56 = getelementptr inbounds %struct.archive, ptr %55, i32 0, i32 3
  store i32 %53, ptr %56, align 8
  %57 = load i32, ptr %5, align 4
  switch i32 %57, label %66 [
    i32 65543, label %58
    i32 65538, label %62
  ]

58:                                               ; preds = %35
  %59 = load ptr, ptr %6, align 8
  %60 = getelementptr inbounds %struct.archive_write, ptr %59, i32 0, i32 0
  %61 = getelementptr inbounds %struct.archive, ptr %60, i32 0, i32 4
  store ptr @.str.3, ptr %61, align 8
  br label %69

62:                                               ; preds = %35
  %63 = load ptr, ptr %6, align 8
  %64 = getelementptr inbounds %struct.archive_write, ptr %63, i32 0, i32 0
  %65 = getelementptr inbounds %struct.archive, ptr %64, i32 0, i32 4
  store ptr @.str.4, ptr %65, align 8
  br label %69

66:                                               ; preds = %35
  %67 = load ptr, ptr %6, align 8
  %68 = getelementptr inbounds %struct.archive_write, ptr %67, i32 0, i32 0
  call void (ptr, i32, ptr, ...) @archive_set_error(ptr noundef %68, i32 noundef 22, ptr noundef @.str.5)
  store i32 -30, ptr %3, align 4
  br label %70

69:                                               ; preds = %62, %58
  store i32 0, ptr %3, align 4
  br label %70

70:                                               ; preds = %69, %66, %32, %15
  %71 = load i32, ptr %3, align 4
  ret i32 %71
}

; Function Attrs: nounwind uwtable
define dso_local i32 @archive_write_set_format_cpio_pwb(ptr noundef %0) #0 {
  %2 = alloca ptr, align 8
  store ptr %0, ptr %2, align 8
  %3 = load ptr, ptr %2, align 8
  %4 = call i32 @archive_write_set_format_cpio_binary(ptr noundef %3, i32 noundef 65543)
  ret i32 %4
}